; Function Attrs: mustprogress nofree norecurse nounwind memory(read, argmem: readwrite, inaccessiblemem: readwrite) uwtable
define hidden noundef zeroext i1 @_ZNK18G1CMRootMemRegions8containsE9MemRegion(ptr noundef nonnull align 8 dereferenceable(34) %0, ptr readnone %1, i64 %2) local_unnamed_addr #5 align 2 {
  %4 = getelementptr inbounds i8, ptr %0, i64 16
  %5 = load volatile i64, ptr %4, align 8
  %.not = icmp eq i64 %5, 0
  br i1 %.not, label %_ZNK9MemRegion6equalsES_.exit.thread, label %.lr.ph

.lr.ph:                                           ; preds = %3
  %.fr19 = freeze i64 %2
  %6 = load ptr, ptr %0, align 8
  %7 = icmp eq i64 %.fr19, 0
  %8 = getelementptr inbounds ptr, ptr %1, i64 %.fr19
  br i1 %7, label %.lr.ph.split, label %.lr.ph.split.us

.lr.ph.split.us:                                  ; preds = %.lr.ph
  %9 = getelementptr inbounds i8, ptr %6, i64 8
  %10 = load i64, ptr %9, align 8
  %11 = load ptr, ptr %6, align 8
  %12 = icmp eq ptr %11, %1
  %13 = getelementptr inbounds ptr, ptr %11, i64 %10
  %14 = icmp eq ptr %13, %8
  %or.cond.us16 = select i1 %12, i1 %14, i1 false
  br i1 %or.cond.us16, label %_ZNK9MemRegion6equalsES_.exit.thread, label %.lr.ph17

_ZNK9MemRegion6equalsES_.exit.thread8.us:         ; preds = %.lr.ph17
  %15 = getelementptr inbounds %class.MemRegion, ptr %6, i64 %24
  %16 = getelementptr inbounds i8, ptr %15, i64 8
  %17 = load i64, ptr %16, align 8
  %18 = load ptr, ptr %15, align 8
  %19 = icmp eq ptr %18, %1
  %20 = getelementptr inbounds ptr, ptr %18, i64 %17
  %21 = icmp eq ptr %20, %8
  %or.cond.us = select i1 %19, i1 %21, i1 false
  %22 = add i32 %23, 1
  br i1 %or.cond.us, label %_ZNK9MemRegion6equalsES_.exit.thread, label %.lr.ph17, !llvm.loop !18

.lr.ph17:                                         ; preds = %.lr.ph.split.us, %_ZNK9MemRegion6equalsES_.exit.thread8.us
  %23 = phi i32 [ %22, %_ZNK9MemRegion6equalsES_.exit.thread8.us ], [ 1, %.lr.ph.split.us ]
  %24 = zext i32 %23 to i64
  %25 = load volatile i64, ptr %4, align 8
  %26 = icmp ugt i64 %25, %24
  br i1 %26, label %_ZNK9MemRegion6equalsES_.exit.thread8.us, label %_ZNK9MemRegion6equalsES_.exit.thread, !llvm.loop !18

27:                                               ; preds = %_ZNK9MemRegion6equalsES_.exit.thread8
  %28 = add i32 %.0611, 1
  %29 = zext i32 %28 to i64
  %30 = load volatile i64, ptr %4, align 8
  %31 = icmp ugt i64 %30, %29
  br i1 %31, label %.lr.ph.split, label %_ZNK9MemRegion6equalsES_.exit.thread, !llvm.loop !18

.lr.ph.split:                                     ; preds = %.lr.ph, %27
  %32 = phi i64 [ %29, %27 ], [ 0, %.lr.ph ]
  %.0611 = phi i32 [ %28, %27 ], [ 0, %.lr.ph ]
  %33 = getelementptr inbounds %class.MemRegion, ptr %6, i64 %32
  %34 = getelementptr inbounds i8, ptr %33, i64 8
  %35 = load i64, ptr %34, align 8
  %36 = icmp eq i64 %35, 0
  br i1 %36, label %_ZNK9MemRegion6equalsES_.exit.thread, label %_ZNK9MemRegion6equalsES_.exit.thread8

_ZNK9MemRegion6equalsES_.exit.thread8:            ; preds = %.lr.ph.split
  %37 = load ptr, ptr %33, align 8
  %38 = icmp eq ptr %37, %1
  %39 = getelementptr inbounds ptr, ptr %37, i64 %35
  %40 = icmp eq ptr %39, %8
  %or.cond = select i1 %38, i1 %40, i1 false
  br i1 %or.cond, label %_ZNK9MemRegion6equalsES_.exit.thread, label %27

_ZNK9MemRegion6equalsES_.exit.thread:             ; preds = %.lr.ph17, %_ZNK9MemRegion6equalsES_.exit.thread8.us, %27, %.lr.ph.split, %_ZNK9MemRegion6equalsES_.exit.thread8, %.lr.ph.split.us, %3
  %.lcssa = phi i1 [ false, %3 ], [ true, %.lr.ph.split.us ], [ true, %_ZNK9MemRegion6equalsES_.exit.thread8 ], [ true, %.lr.ph.split ], [ false, %27 ], [ %26, %_ZNK9MemRegion6equalsES_.exit.thread8.us ], [ %26, %.lr.ph17 ]
  ret i1 %.lcssa
}